; Function Attrs: mustprogress uwtable
define void @_ZN3zmq17socks_connecter_t16start_connectingEv(ptr noundef nonnull align 8 dereferenceable(3032) %this) unnamed_addr #0 align 2 personality ptr @__gxx_personality_v0 {
entry:
  %ref.tmp = alloca %"struct.zmq::endpoint_uri_pair_t", align 8
  %_status = getelementptr inbounds i8, ptr %this, i64 3024
  %0 = load i32, ptr %_status, align 8
  %cmp.not = icmp eq i32 %0, 0
  br i1 %cmp.not, label %do.end, label %if.then

if.then:                                          ; preds = %entry
  %1 = load ptr, ptr @stderr, align 8
  %call = tail call i32 (ptr, ptr, ...) @fprintf(ptr noundef %1, ptr noundef nonnull @.str, ptr noundef nonnull @.str.8, ptr noundef nonnull @.str.2, i32 noundef 187) #14
  %2 = load ptr, ptr @stderr, align 8
  %call2 = tail call i32 @fflush(ptr noundef %2)
  tail call void @_ZN3zmq9zmq_abortEPKc(ptr noundef nonnull @.str.8)
  br label %do.end

do.end:                                           ; preds = %entry, %if.then
  %call3 = tail call noundef i32 @_ZN3zmq17socks_connecter_t16connect_to_proxyEv(ptr noundef nonnull align 8 dereferenceable(3032) %this), !range !4
  %cmp4 = icmp eq i32 %call3, 0
  br i1 %cmp4, label %if.then5, label %if.else

if.then5:                                         ; preds = %do.end
  %add.ptr = getelementptr inbounds i8, ptr %this, i64 1448
  %_s = getelementptr inbounds i8, ptr %this, i64 1472
  %3 = load i32, ptr %_s, align 8
  %call6 = tail call noundef ptr @_ZN3zmq11io_object_t6add_fdEi(ptr noundef nonnull align 8 dereferenceable(16) %add.ptr, i32 noundef %3)
  %_handle = getelementptr inbounds i8, ptr %this, i64 1480
  store ptr %call6, ptr %_handle, align 8
  tail call void @_ZN3zmq11io_object_t11set_polloutEPv(ptr noundef nonnull align 8 dereferenceable(16) %add.ptr, ptr noundef %call6)
  store i32 3, ptr %_status, align 8
  br label %if.end28

if.else:                                          ; preds = %do.end
  %call10 = tail call ptr @__errno_location() #16
  %4 = load i32, ptr %call10, align 4
  %cmp11 = icmp eq i32 %4, 115
  br i1 %cmp11, label %if.then12, label %if.else22

if.then12:                                        ; preds = %if.else
  %add.ptr13 = getelementptr inbounds i8, ptr %this, i64 1448
  %_s14 = getelementptr inbounds i8, ptr %this, i64 1472
  %5 = load i32, ptr %_s14, align 8
  %call15 = tail call noundef ptr @_ZN3zmq11io_object_t6add_fdEi(ptr noundef nonnull align 8 dereferenceable(16) %add.ptr13, i32 noundef %5)
  %_handle16 = getelementptr inbounds i8, ptr %this, i64 1480
  store ptr %call15, ptr %_handle16, align 8
  tail call void @_ZN3zmq11io_object_t11set_polloutEPv(ptr noundef nonnull align 8 dereferenceable(16) %add.ptr13, ptr noundef %call15)
  store i32 2, ptr %_status, align 8
  %_socket = getelementptr inbounds i8, ptr %this, i64 1520
  %6 = load ptr, ptr %_socket, align 8
  %_endpoint = getelementptr inbounds i8, ptr %this, i64 1488
  call void @_ZN3zmq38make_unconnected_connect_endpoint_pairERKNSt7__cxx1112basic_stringIcSt11char_traitsIcESaIcEEE(ptr nonnull sret(%"struct.zmq::endpoint_uri_pair_t") align 8 %ref.tmp, ptr noundef nonnull align 8 dereferenceable(32) %_endpoint)
  %call20 = invoke i32 @zmq_errno()
          to label %invoke.cont unwind label %lpad

invoke.cont:                                      ; preds = %if.then12
  invoke void @_ZN3zmq13socket_base_t21event_connect_delayedERKNS_19endpoint_uri_pair_tEi(ptr noundef nonnull align 8 dereferenceable(1825) %6, ptr noundef nonnull align 8 dereferenceable(68) %ref.tmp, i32 noundef %call20)
          to label %invoke.cont21 unwind label %lpad

invoke.cont21:                                    ; preds = %invoke.cont
  %remote.i = getelementptr inbounds i8, ptr %ref.tmp, i64 32
  call void @_ZNSt7__cxx1112basic_stringIcSt11char_traitsIcESaIcEED1Ev(ptr noundef nonnull align 8 dereferenceable(32) %remote.i) #13
  call void @_ZNSt7__cxx1112basic_stringIcSt11char_traitsIcESaIcEED1Ev(ptr noundef nonnull align 8 dereferenceable(32) %ref.tmp) #13
  br label %if.end28

lpad:                                             ; preds = %invoke.cont, %if.then12
  %7 = landingpad { ptr, i32 }
          cleanup
  %remote.i1 = getelementptr inbounds i8, ptr %ref.tmp, i64 32
  call void @_ZNSt7__cxx1112basic_stringIcSt11char_traitsIcESaIcEED1Ev(ptr noundef nonnull align 8 dereferenceable(32) %remote.i1) #13
  call void @_ZNSt7__cxx1112basic_stringIcSt11char_traitsIcESaIcEED1Ev(ptr noundef nonnull align 8 dereferenceable(32) %ref.tmp) #13
  resume { ptr, i32 } %7

if.else22:                                        ; preds = %if.else
  %_s23 = getelementptr inbounds i8, ptr %this, i64 1472
  %8 = load i32, ptr %_s23, align 8
  %cmp24.not = icmp eq i32 %8, -1
  br i1 %cmp24.not, label %if.end26, label %if.then25

if.then25:                                        ; preds = %if.else22
  tail call void @_ZN3zmq23stream_connecter_base_t5closeEv(ptr noundef nonnull align 8 dereferenceable(1544) %this)
  br label %if.end26

if.end26:                                         ; preds = %if.then25, %if.else22
  tail call void @_ZN3zmq23stream_connecter_base_t19add_reconnect_timerEv(ptr noundef nonnull align 8 dereferenceable(1544) %this)
  br label %if.end28

if.end28:                                         ; preds = %invoke.cont21, %if.end26, %if.then5
  ret void
}